target datalayout = "e-m:e-p270:32:32-p271:32:32-p272:64:64-i64:64-i128:128-f80:128-n8:16:32:64-S128"
target triple = "x86_64-pc-linux-gnu"

%struct.bignum_st = type { ptr, i32, i32, i32, i32 }

@.str = private unnamed_addr constant [123 x i8] c"generated/home/dtcxzyw/WorkSpace/Projects/compilers/llvm-opt-benchmark/bench/libquic/libquic/boringssl/crypto/bn/convert.c\00", align 1

; Function Attrs: nounwind uwtable
define hidden ptr @BN_bin2bn(ptr noundef %0, i64 noundef %1, ptr noundef %2) #0 {
  %4 = alloca ptr, align 8
  %5 = alloca ptr, align 8
  %6 = alloca i64, align 8
  %7 = alloca ptr, align 8
  %8 = alloca i64, align 8
  %9 = alloca i32, align 4
  %10 = alloca i64, align 8
  %11 = alloca ptr, align 8
  %12 = alloca i32, align 4
  store ptr %0, ptr %5, align 8, !tbaa !6
  store i64 %1, ptr %6, align 8, !tbaa !11
  store ptr %2, ptr %7, align 8, !tbaa !13
  call void @llvm.lifetime.start.p0(i64 8, ptr %8) #7
  call void @llvm.lifetime.start.p0(i64 4, ptr %9) #7
  call void @llvm.lifetime.start.p0(i64 8, ptr %10) #7
  store i64 0, ptr %10, align 8, !tbaa !11
  call void @llvm.lifetime.start.p0(i64 8, ptr %11) #7
  store ptr null, ptr %11, align 8, !tbaa !13
  %13 = load ptr, ptr %7, align 8, !tbaa !13
  %14 = icmp eq ptr %13, null
  br i1 %14, label %15, label %17

15:                                               ; preds = %3
  %16 = call ptr @BN_new()
  store ptr %16, ptr %11, align 8, !tbaa !13
  store ptr %16, ptr %7, align 8, !tbaa !13
  br label %17

17:                                               ; preds = %15, %3
  %18 = load ptr, ptr %7, align 8, !tbaa !13
  %19 = icmp eq ptr %18, null
  br i1 %19, label %20, label %21

20:                                               ; preds = %17
  store ptr null, ptr %4, align 8
  store i32 1, ptr %12, align 4
  br label %81

21:                                               ; preds = %17
  %22 = load i64, ptr %6, align 8, !tbaa !11
  %23 = icmp eq i64 %22, 0
  br i1 %23, label %24, label %28

24:                                               ; preds = %21
  %25 = load ptr, ptr %7, align 8, !tbaa !13
  %26 = getelementptr inbounds nuw %struct.bignum_st, ptr %25, i32 0, i32 1
  store i32 0, ptr %26, align 8, !tbaa !15
  %27 = load ptr, ptr %7, align 8, !tbaa !13
  store ptr %27, ptr %4, align 8
  store i32 1, ptr %12, align 4
  br label %81

28:                                               ; preds = %21
  %29 = load i64, ptr %6, align 8, !tbaa !11
  %30 = sub i64 %29, 1
  %31 = udiv i64 %30, 8
  %32 = add i64 %31, 1
  store i64 %32, ptr %8, align 8, !tbaa !11
  %33 = load i64, ptr %6, align 8, !tbaa !11
  %34 = sub i64 %33, 1
  %35 = urem i64 %34, 8
  %36 = trunc i64 %35 to i32
  store i32 %36, ptr %9, align 4, !tbaa !19
  %37 = load ptr, ptr %7, align 8, !tbaa !13
  %38 = load i64, ptr %8, align 8, !tbaa !11
  %39 = call ptr @bn_wexpand(ptr noundef %37, i64 noundef %38)
  %40 = icmp eq ptr %39, null
  br i1 %40, label %41, label %47

41:                                               ; preds = %28
  %42 = load ptr, ptr %11, align 8, !tbaa !13
  %43 = icmp ne ptr %42, null
  br i1 %43, label %44, label %46

44:                                               ; preds = %41
  %45 = load ptr, ptr %11, align 8, !tbaa !13
  call void @BN_free(ptr noundef %45)
  br label %46

46:                                               ; preds = %44, %41
  store ptr null, ptr %4, align 8
  store i32 1, ptr %12, align 4
  br label %81

47:                                               ; preds = %28
  %48 = load i64, ptr %8, align 8, !tbaa !11
  %49 = trunc i64 %48 to i32
  %50 = load ptr, ptr %7, align 8, !tbaa !13
  %51 = getelementptr inbounds nuw %struct.bignum_st, ptr %50, i32 0, i32 1
  store i32 %49, ptr %51, align 8, !tbaa !15
  %52 = load ptr, ptr %7, align 8, !tbaa !13
  %53 = getelementptr inbounds nuw %struct.bignum_st, ptr %52, i32 0, i32 3
  store i32 0, ptr %53, align 8, !tbaa !20
  br label %54

54:                                               ; preds = %77, %47
  %55 = load i64, ptr %6, align 8, !tbaa !11
  %56 = add i64 %55, -1
  store i64 %56, ptr %6, align 8, !tbaa !11
  %57 = icmp ne i64 %55, 0
  br i1 %57, label %58, label %78

58:                                               ; preds = %54
  %59 = load i64, ptr %10, align 8, !tbaa !11
  %60 = shl i64 %59, 8
  %61 = load ptr, ptr %5, align 8, !tbaa !6
  %62 = getelementptr inbounds nuw i8, ptr %61, i32 1
  store ptr %62, ptr %5, align 8, !tbaa !6
  %63 = load i8, ptr %61, align 1, !tbaa !21
  %64 = zext i8 %63 to i64
  %65 = or i64 %60, %64
  store i64 %65, ptr %10, align 8, !tbaa !11
  %66 = load i32, ptr %9, align 4, !tbaa !19
  %67 = add i32 %66, -1
  store i32 %67, ptr %9, align 4, !tbaa !19
  %68 = icmp eq i32 %66, 0
  br i1 %68, label %69, label %77

69:                                               ; preds = %58
  %70 = load i64, ptr %10, align 8, !tbaa !11
  %71 = load ptr, ptr %7, align 8, !tbaa !13
  %72 = getelementptr inbounds nuw %struct.bignum_st, ptr %71, i32 0, i32 0
  %73 = load ptr, ptr %72, align 8, !tbaa !22
  %74 = load i64, ptr %8, align 8, !tbaa !11
  %75 = add i64 %74, -1
  store i64 %75, ptr %8, align 8, !tbaa !11
  %76 = getelementptr inbounds nuw i64, ptr %73, i64 %75
  store i64 %70, ptr %76, align 8, !tbaa !11
  store i64 0, ptr %10, align 8, !tbaa !11
  store i32 7, ptr %9, align 4, !tbaa !19
  br label %77

77:                                               ; preds = %69, %58
  br label %54, !llvm.loop !23

78:                                               ; preds = %54
  %79 = load ptr, ptr %7, align 8, !tbaa !13
  call void @bn_correct_top(ptr noundef %79)
  %80 = load ptr, ptr %7, align 8, !tbaa !13
  store ptr %80, ptr %4, align 8
  store i32 1, ptr %12, align 4
  br label %81

81:                                               ; preds = %78, %46, %24, %20
  call void @llvm.lifetime.end.p0(i64 8, ptr %11) #7
  call void @llvm.lifetime.end.p0(i64 8, ptr %10) #7
  call void @llvm.lifetime.end.p0(i64 4, ptr %9) #7
  call void @llvm.lifetime.end.p0(i64 8, ptr %8) #7
  %82 = load ptr, ptr %4, align 8
  ret ptr %82
}

; Function Attrs: nounwind uwtable
define hidden ptr @BN_mpi2bn(ptr noundef %0, i64 noundef %1, ptr noundef %2) #0 {
  %4 = alloca ptr, align 8
  %5 = alloca ptr, align 8
  %6 = alloca i64, align 8
  %7 = alloca ptr, align 8
  %8 = alloca i64, align 8
  %9 = alloca i32, align 4
  store ptr %0, ptr %5, align 8, !tbaa !6
  store i64 %1, ptr %6, align 8, !tbaa !11
  store ptr %2, ptr %7, align 8, !tbaa !13
  %10 = load i64, ptr %6, align 8, !tbaa !11
  %11 = icmp ult i64 %10, 4
  br i1 %11, label %12, label %13

12:                                               ; preds = %3
  call void @ERR_put_error(i32 noundef 3, i32 noundef 0, i32 noundef 117, ptr noundef @.str, i32 noundef 568)
  store ptr null, ptr %4, align 8
  br label %87

13:                                               ; preds = %3
  call void @llvm.lifetime.start.p0(i64 8, ptr %8) #7
  %14 = load ptr, ptr %5, align 8, !tbaa !6
  %15 = getelementptr inbounds i8, ptr %14, i64 0
  %16 = load i8, ptr %15, align 1, !tbaa !21
  %17 = zext i8 %16 to i64
  %18 = shl i64 %17, 24
  %19 = load ptr, ptr %5, align 8, !tbaa !6
  %20 = getelementptr inbounds i8, ptr %19, i64 1
  %21 = load i8, ptr %20, align 1, !tbaa !21
  %22 = zext i8 %21 to i64
  %23 = shl i64 %22, 16
  %24 = or i64 %18, %23
  %25 = load ptr, ptr %5, align 8, !tbaa !6
  %26 = getelementptr inbounds i8, ptr %25, i64 2
  %27 = load i8, ptr %26, align 1, !tbaa !21
  %28 = zext i8 %27 to i64
  %29 = shl i64 %28, 8
  %30 = or i64 %24, %29
  %31 = load ptr, ptr %5, align 8, !tbaa !6
  %32 = getelementptr inbounds i8, ptr %31, i64 3
  %33 = load i8, ptr %32, align 1, !tbaa !21
  %34 = zext i8 %33 to i64
  %35 = or i64 %30, %34
  store i64 %35, ptr %8, align 8, !tbaa !11
  %36 = load i64, ptr %8, align 8, !tbaa !11
  %37 = load i64, ptr %6, align 8, !tbaa !11
  %38 = sub i64 %37, 4
  %39 = icmp ne i64 %36, %38
  br i1 %39, label %40, label %41

40:                                               ; preds = %13
  call void @ERR_put_error(i32 noundef 3, i32 noundef 0, i32 noundef 117, ptr noundef @.str, i32 noundef 576)
  store ptr null, ptr %4, align 8
  store i32 1, ptr %9, align 4
  br label %86

41:                                               ; preds = %13
  %42 = load ptr, ptr %7, align 8, !tbaa !13
  %43 = icmp eq ptr %42, null
  br i1 %43, label %44, label %46

44:                                               ; preds = %41
  %45 = call ptr @BN_new()
  store ptr %45, ptr %7, align 8, !tbaa !13
  br label %46

46:                                               ; preds = %44, %41
  %47 = load ptr, ptr %7, align 8, !tbaa !13
  %48 = icmp eq ptr %47, null
  br i1 %48, label %49, label %50

49:                                               ; preds = %46
  call void @ERR_put_error(i32 noundef 3, i32 noundef 0, i32 noundef 65, ptr noundef @.str, i32 noundef 584)
  store ptr null, ptr %4, align 8
  store i32 1, ptr %9, align 4
  br label %86

50:                                               ; preds = %46
  %51 = load i64, ptr %8, align 8, !tbaa !11
  %52 = icmp eq i64 %51, 0
  br i1 %52, label %53, label %56

53:                                               ; preds = %50
  %54 = load ptr, ptr %7, align 8, !tbaa !13
  call void @BN_zero(ptr noundef %54)
  %55 = load ptr, ptr %7, align 8, !tbaa !13
  store ptr %55, ptr %4, align 8
  store i32 1, ptr %9, align 4
  br label %86

56:                                               ; preds = %50
  %57 = load ptr, ptr %5, align 8, !tbaa !6
  %58 = getelementptr inbounds i8, ptr %57, i64 4
  store ptr %58, ptr %5, align 8, !tbaa !6
  %59 = load ptr, ptr %5, align 8, !tbaa !6
  %60 = load i64, ptr %8, align 8, !tbaa !11
  %61 = load ptr, ptr %7, align 8, !tbaa !13
  %62 = call ptr @BN_bin2bn(ptr noundef %59, i64 noundef %60, ptr noundef %61)
  %63 = icmp eq ptr %62, null
  br i1 %63, label %64, label %65

64:                                               ; preds = %56
  store ptr null, ptr %4, align 8
  store i32 1, ptr %9, align 4
  br label %86

65:                                               ; preds = %56
  %66 = load ptr, ptr %5, align 8, !tbaa !6
  %67 = load i8, ptr %66, align 1, !tbaa !21
  %68 = zext i8 %67 to i32
  %69 = and i32 %68, 128
  %70 = icmp ne i32 %69, 0
  %71 = zext i1 %70 to i32
  %72 = load ptr, ptr %7, align 8, !tbaa !13
  %73 = getelementptr inbounds nuw %struct.bignum_st, ptr %72, i32 0, i32 3
  store i32 %71, ptr %73, align 8, !tbaa !20
  %74 = load ptr, ptr %7, align 8, !tbaa !13
  %75 = getelementptr inbounds nuw %struct.bignum_st, ptr %74, i32 0, i32 3
  %76 = load i32, ptr %75, align 8, !tbaa !20
  %77 = icmp ne i32 %76, 0
  br i1 %77, label %78, label %84

78:                                               ; preds = %65
  %79 = load ptr, ptr %7, align 8, !tbaa !13
  %80 = load ptr, ptr %7, align 8, !tbaa !13
  %81 = call i32 @BN_num_bits(ptr noundef %80)
  %82 = sub i32 %81, 1
  %83 = call i32 @BN_clear_bit(ptr noundef %79, i32 noundef %82)
  br label %84

84:                                               ; preds = %78, %65
  %85 = load ptr, ptr %7, align 8, !tbaa !13
  store ptr %85, ptr %4, align 8
  store i32 1, ptr %9, align 4
  br label %86

86:                                               ; preds = %84, %64, %53, %49, %40
  call void @llvm.lifetime.end.p0(i64 8, ptr %8) #7
  br label %87

87:                                               ; preds = %86, %12
  %88 = load ptr, ptr %4, align 8
  ret ptr %88
}