; Function Attrs: nounwind uwtable
define hidden ptr @BN_mpi2bn(ptr noundef readonly captures(none) %0, i64 noundef %1, ptr noundef %2) local_unnamed_addr #0 {
  %4 = icmp ult i64 %1, 4
  br i1 %4, label %5, label %6

5:                                                ; preds = %3
  tail call void @ERR_put_error(i32 noundef 3, i32 noundef 0, i32 noundef 117, ptr noundef nonnull @.str, i32 noundef 568) #9
  br label %BN_bin2bn.exit.thread

6:                                                ; preds = %3
  %7 = load i8, ptr %0, align 1, !tbaa !14
  %8 = zext i8 %7 to i64
  %9 = shl nuw nsw i64 %8, 24
  %10 = getelementptr inbounds nuw i8, ptr %0, i64 1
  %11 = load i8, ptr %10, align 1, !tbaa !14
  %12 = zext i8 %11 to i64
  %13 = shl nuw nsw i64 %12, 16
  %14 = or disjoint i64 %13, %9
  %15 = getelementptr inbounds nuw i8, ptr %0, i64 2
  %16 = load i8, ptr %15, align 1, !tbaa !14
  %17 = zext i8 %16 to i64
  %18 = shl nuw nsw i64 %17, 8
  %19 = or disjoint i64 %14, %18
  %20 = getelementptr inbounds nuw i8, ptr %0, i64 3
  %21 = load i8, ptr %20, align 1, !tbaa !14
  %22 = zext i8 %21 to i64
  %23 = or disjoint i64 %19, %22
  %24 = add i64 %1, -4
  %.not = icmp eq i64 %23, %24
  br i1 %.not, label %26, label %25

25:                                               ; preds = %6
  tail call void @ERR_put_error(i32 noundef 3, i32 noundef 0, i32 noundef 117, ptr noundef nonnull @.str, i32 noundef 576) #9
  br label %BN_bin2bn.exit.thread

26:                                               ; preds = %6
  %27 = icmp eq ptr %2, null
  br i1 %27, label %28, label %.thread

28:                                               ; preds = %26
  %29 = tail call ptr @BN_new() #9
  %30 = icmp eq ptr %29, null
  br i1 %30, label %31, label %.thread

31:                                               ; preds = %28
  tail call void @ERR_put_error(i32 noundef 3, i32 noundef 0, i32 noundef 65, ptr noundef nonnull @.str, i32 noundef 584) #9
  br label %BN_bin2bn.exit.thread

.thread:                                          ; preds = %26, %28
  %.02227 = phi ptr [ %29, %28 ], [ %2, %26 ]
  %32 = icmp eq i64 %23, 0
  br i1 %32, label %33, label %34

33:                                               ; preds = %.thread
  tail call void @BN_zero(ptr noundef nonnull %.02227) #9
  br label %BN_bin2bn.exit.thread

34:                                               ; preds = %.thread
  %35 = getelementptr inbounds nuw i8, ptr %0, i64 4
  %36 = add nsw i64 %23, -1
  %37 = lshr i64 %36, 3
  %38 = add nuw nsw i64 %37, 1
  %39 = tail call ptr @bn_wexpand(ptr noundef nonnull %.02227, i64 noundef %38) #9
  %40 = icmp eq ptr %39, null
  br i1 %40, label %BN_bin2bn.exit.thread, label %41

41:                                               ; preds = %34
  %42 = trunc i64 %36 to i32
  %43 = and i32 %42, 7
  %44 = trunc i64 %38 to i32
  %45 = getelementptr inbounds nuw i8, ptr %.02227, i64 8
  store i32 %44, ptr %45, align 8, !tbaa !6
  %46 = getelementptr inbounds nuw i8, ptr %.02227, i64 16
  store i32 0, ptr %46, align 8, !tbaa !13
  br label %47

47:                                               ; preds = %60, %41
  %.in.i = phi i64 [ %23, %41 ], [ %48, %60 ]
  %.02342.i = phi i64 [ 0, %41 ], [ %.1.i, %60 ]
  %.02441.i = phi i32 [ %43, %41 ], [ %.125.i, %60 ]
  %.02640.i = phi i64 [ %38, %41 ], [ %.127.i, %60 ]
  %.03039.i = phi ptr [ %35, %41 ], [ %50, %60 ]
  %48 = add nsw i64 %.in.i, -1
  %49 = shl i64 %.02342.i, 8
  %50 = getelementptr inbounds nuw i8, ptr %.03039.i, i64 1
  %51 = load i8, ptr %.03039.i, align 1, !tbaa !14
  %52 = zext i8 %51 to i64
  %53 = or disjoint i64 %49, %52
  %54 = add i32 %.02441.i, -1
  %55 = icmp eq i32 %.02441.i, 0
  br i1 %55, label %56, label %60

56:                                               ; preds = %47
  %57 = load ptr, ptr %.02227, align 8, !tbaa !15
  %58 = add i64 %.02640.i, -1
  %59 = getelementptr inbounds nuw i64, ptr %57, i64 %58
  store i64 %53, ptr %59, align 8, !tbaa !16
  br label %60

60:                                               ; preds = %56, %47
  %.127.i = phi i64 [ %58, %56 ], [ %.02640.i, %47 ]
  %.125.i = phi i32 [ 7, %56 ], [ %54, %47 ]
  %.1.i = phi i64 [ 0, %56 ], [ %53, %47 ]
  %.not.i = icmp eq i64 %48, 0
  br i1 %.not.i, label %61, label %47, !llvm.loop !18

61:                                               ; preds = %60
  tail call void @bn_correct_top(ptr noundef nonnull %.02227) #9
  %62 = load i8, ptr %35, align 1, !tbaa !14
  %63 = icmp slt i8 %62, 0
  %.lobit = lshr i8 %62, 7
  %64 = zext nneg i8 %.lobit to i32
  store i32 %64, ptr %46, align 8, !tbaa !13
  br i1 %63, label %65, label %BN_bin2bn.exit.thread

65:                                               ; preds = %61
  %66 = tail call i32 @BN_num_bits(ptr noundef nonnull %.02227) #9
  %67 = add i32 %66, -1
  %68 = tail call i32 @BN_clear_bit(ptr noundef nonnull %.02227, i32 noundef %67) #9
  br label %BN_bin2bn.exit.thread

BN_bin2bn.exit.thread:                            ; preds = %34, %25, %31, %33, %65, %61, %5
  %.0 = phi ptr [ null, %5 ], [ null, %25 ], [ null, %31 ], [ %.02227, %33 ], [ %.02227, %65 ], [ %.02227, %61 ], [ null, %34 ]
  ret ptr %.0
}